target datalayout = "e-m:e-p270:32:32-p271:32:32-p272:64:64-i64:64-i128:128-f80:128-n8:16:32:64-S128"
target triple = "x86_64-pc-linux-gnu"

%struct.indexed_table_ref_iter = type { ptr, %struct.reftable_buf, ptr, i32, i32, %struct.block_reader, %struct.block_iter, i32 }
%struct.reftable_buf = type { i64, i64, ptr }
%struct.block_reader = type { i32, %struct.reftable_block, i32, ptr, ptr, i64, i32, ptr, i16, i32 }
%struct.reftable_block = type { ptr, i64, %struct.reftable_block_source }
%struct.reftable_block_source = type { ptr, ptr }
%struct.block_iter = type { i32, ptr, i64, i32, %struct.reftable_buf, %struct.reftable_buf }
%struct.reftable_record = type { i8, %union.anon }
%union.anon = type { %struct.reftable_log_record }
%struct.reftable_log_record = type { ptr, i64, i64, i32, %union.anon.1 }
%union.anon.1 = type { %struct.anon.2 }
%struct.anon.2 = type { [32 x i8], [32 x i8], ptr, ptr, i64, i16, ptr, i64 }
%struct.reftable_ref_record = type { ptr, i64, i64, i32, %union.anon.0 }
%union.anon.0 = type { ptr, [56 x i8] }
%struct.anon = type { [32 x i8], [32 x i8] }

; Function Attrs: nounwind uwtable
define internal i32 @indexed_table_ref_iter_next_block(ptr noundef %0) #0 {
  %2 = alloca i32, align 4
  %3 = alloca ptr, align 8
  %4 = alloca i64, align 8
  %5 = alloca i32, align 4
  %6 = alloca i32, align 4
  store ptr %0, ptr %3, align 8, !tbaa !30
  call void @llvm.lifetime.start.p0(i64 8, ptr %4) #7
  call void @llvm.lifetime.start.p0(i64 4, ptr %5) #7
  store i32 0, ptr %5, align 4, !tbaa !26
  %7 = load ptr, ptr %3, align 8, !tbaa !30
  %8 = getelementptr inbounds nuw %struct.indexed_table_ref_iter, ptr %7, i32 0, i32 3
  %9 = load i32, ptr %8, align 8, !tbaa !51
  %10 = load ptr, ptr %3, align 8, !tbaa !30
  %11 = getelementptr inbounds nuw %struct.indexed_table_ref_iter, ptr %10, i32 0, i32 4
  %12 = load i32, ptr %11, align 4, !tbaa !50
  %13 = icmp eq i32 %9, %12
  br i1 %13, label %14, label %17

14:                                               ; preds = %1
  %15 = load ptr, ptr %3, align 8, !tbaa !30
  %16 = getelementptr inbounds nuw %struct.indexed_table_ref_iter, ptr %15, i32 0, i32 7
  store i32 1, ptr %16, align 8, !tbaa !52
  store i32 1, ptr %2, align 4
  store i32 1, ptr %6, align 4
  br label %51

17:                                               ; preds = %1
  %18 = load ptr, ptr %3, align 8, !tbaa !30
  %19 = getelementptr inbounds nuw %struct.indexed_table_ref_iter, ptr %18, i32 0, i32 5
  %20 = getelementptr inbounds nuw %struct.block_reader, ptr %19, i32 0, i32 1
  call void @reftable_block_done(ptr noundef %20)
  %21 = load ptr, ptr %3, align 8, !tbaa !30
  %22 = getelementptr inbounds nuw %struct.indexed_table_ref_iter, ptr %21, i32 0, i32 2
  %23 = load ptr, ptr %22, align 8, !tbaa !49
  %24 = load ptr, ptr %3, align 8, !tbaa !30
  %25 = getelementptr inbounds nuw %struct.indexed_table_ref_iter, ptr %24, i32 0, i32 3
  %26 = load i32, ptr %25, align 8, !tbaa !51
  %27 = add nsw i32 %26, 1
  store i32 %27, ptr %25, align 8, !tbaa !51
  %28 = sext i32 %26 to i64
  %29 = getelementptr inbounds i64, ptr %23, i64 %28
  %30 = load i64, ptr %29, align 8, !tbaa !33
  store i64 %30, ptr %4, align 8, !tbaa !33
  %31 = load ptr, ptr %3, align 8, !tbaa !30
  %32 = getelementptr inbounds nuw %struct.indexed_table_ref_iter, ptr %31, i32 0, i32 0
  %33 = load ptr, ptr %32, align 8, !tbaa !42
  %34 = load ptr, ptr %3, align 8, !tbaa !30
  %35 = getelementptr inbounds nuw %struct.indexed_table_ref_iter, ptr %34, i32 0, i32 5
  %36 = load i64, ptr %4, align 8, !tbaa !33
  %37 = call i32 @reader_init_block_reader(ptr noundef %33, ptr noundef %35, i64 noundef %36, i8 noundef zeroext 114)
  store i32 %37, ptr %5, align 4, !tbaa !26
  %38 = load i32, ptr %5, align 4, !tbaa !26
  %39 = icmp slt i32 %38, 0
  br i1 %39, label %40, label %42

40:                                               ; preds = %17
  %41 = load i32, ptr %5, align 4, !tbaa !26
  store i32 %41, ptr %2, align 4
  store i32 1, ptr %6, align 4
  br label %51

42:                                               ; preds = %17
  %43 = load i32, ptr %5, align 4, !tbaa !26
  %44 = icmp sgt i32 %43, 0
  br i1 %44, label %45, label %46

45:                                               ; preds = %42
  store i32 -3, ptr %2, align 4
  store i32 1, ptr %6, align 4
  br label %51

46:                                               ; preds = %42
  %47 = load ptr, ptr %3, align 8, !tbaa !30
  %48 = getelementptr inbounds nuw %struct.indexed_table_ref_iter, ptr %47, i32 0, i32 6
  %49 = load ptr, ptr %3, align 8, !tbaa !30
  %50 = getelementptr inbounds nuw %struct.indexed_table_ref_iter, ptr %49, i32 0, i32 5
  call void @block_iter_seek_start(ptr noundef %48, ptr noundef %50)
  store i32 0, ptr %2, align 4
  store i32 1, ptr %6, align 4
  br label %51

51:                                               ; preds = %46, %45, %40, %14
  call void @llvm.lifetime.end.p0(i64 4, ptr %5) #7
  call void @llvm.lifetime.end.p0(i64 8, ptr %4) #7
  %52 = load i32, ptr %2, align 4
  ret i32 %52
}

; Function Attrs: nounwind uwtable
define internal i32 @indexed_table_ref_iter_next(ptr noundef %0, ptr noundef %1) #0 {
  %3 = alloca i32, align 4
  %4 = alloca ptr, align 8
  %5 = alloca ptr, align 8
  %6 = alloca ptr, align 8
  %7 = alloca ptr, align 8
  %8 = alloca i32, align 4
  %9 = alloca i32, align 4
  store ptr %0, ptr %4, align 8, !tbaa !37
  store ptr %1, ptr %5, align 8, !tbaa !9
  call void @llvm.lifetime.start.p0(i64 8, ptr %6) #7
  %10 = load ptr, ptr %4, align 8, !tbaa !37
  store ptr %10, ptr %6, align 8, !tbaa !30
  call void @llvm.lifetime.start.p0(i64 8, ptr %7) #7
  %11 = load ptr, ptr %5, align 8, !tbaa !9
  %12 = getelementptr inbounds nuw %struct.reftable_record, ptr %11, i32 0, i32 1
  store ptr %12, ptr %7, align 8, !tbaa !58
  br label %13

13:                                               ; preds = %74, %72, %2
  br label %14

14:                                               ; preds = %13
  call void @llvm.lifetime.start.p0(i64 4, ptr %8) #7
  %15 = load ptr, ptr %6, align 8, !tbaa !30
  %16 = getelementptr inbounds nuw %struct.indexed_table_ref_iter, ptr %15, i32 0, i32 6
  %17 = load ptr, ptr %5, align 8, !tbaa !9
  %18 = call i32 @block_iter_next(ptr noundef %16, ptr noundef %17)
  store i32 %18, ptr %8, align 4, !tbaa !26
  %19 = load i32, ptr %8, align 4, !tbaa !26
  %20 = icmp slt i32 %19, 0
  br i1 %20, label %21, label %23

21:                                               ; preds = %14
  %22 = load i32, ptr %8, align 4, !tbaa !26
  store i32 %22, ptr %3, align 4
  store i32 1, ptr %9, align 4
  br label %72

23:                                               ; preds = %14
  %24 = load i32, ptr %8, align 4, !tbaa !26
  %25 = icmp sgt i32 %24, 0
  br i1 %25, label %26, label %40

26:                                               ; preds = %23
  %27 = load ptr, ptr %6, align 8, !tbaa !30
  %28 = call i32 @indexed_table_ref_iter_next_block(ptr noundef %27)
  store i32 %28, ptr %8, align 4, !tbaa !26
  %29 = load i32, ptr %8, align 4, !tbaa !26
  %30 = icmp slt i32 %29, 0
  br i1 %30, label %31, label %33

31:                                               ; preds = %26
  %32 = load i32, ptr %8, align 4, !tbaa !26
  store i32 %32, ptr %3, align 4
  store i32 1, ptr %9, align 4
  br label %72

33:                                               ; preds = %26
  %34 = load ptr, ptr %6, align 8, !tbaa !30
  %35 = getelementptr inbounds nuw %struct.indexed_table_ref_iter, ptr %34, i32 0, i32 7
  %36 = load i32, ptr %35, align 8, !tbaa !52
  %37 = icmp ne i32 %36, 0
  br i1 %37, label %38, label %39

38:                                               ; preds = %33
  store i32 1, ptr %3, align 4
  store i32 1, ptr %9, align 4
  br label %72

39:                                               ; preds = %33
  store i32 2, ptr %9, align 4
  br label %72

40:                                               ; preds = %23
  %41 = load ptr, ptr %6, align 8, !tbaa !30
  %42 = getelementptr inbounds nuw %struct.indexed_table_ref_iter, ptr %41, i32 0, i32 1
  %43 = getelementptr inbounds nuw %struct.reftable_buf, ptr %42, i32 0, i32 2
  %44 = load ptr, ptr %43, align 8, !tbaa !72
  %45 = load ptr, ptr %7, align 8, !tbaa !58
  %46 = getelementptr inbounds nuw %struct.reftable_ref_record, ptr %45, i32 0, i32 4
  %47 = getelementptr inbounds nuw %struct.anon, ptr %46, i32 0, i32 1
  %48 = getelementptr inbounds [32 x i8], ptr %47, i64 0, i64 0
  %49 = load ptr, ptr %6, align 8, !tbaa !30
  %50 = getelementptr inbounds nuw %struct.indexed_table_ref_iter, ptr %49, i32 0, i32 1
  %51 = getelementptr inbounds nuw %struct.reftable_buf, ptr %50, i32 0, i32 1
  %52 = load i64, ptr %51, align 8, !tbaa !73
  %53 = call i32 @memcmp(ptr noundef %44, ptr noundef %48, i64 noundef %52) #8
  %54 = icmp ne i32 %53, 0
  br i1 %54, label %55, label %70

55:                                               ; preds = %40
  %56 = load ptr, ptr %6, align 8, !tbaa !30
  %57 = getelementptr inbounds nuw %struct.indexed_table_ref_iter, ptr %56, i32 0, i32 1
  %58 = getelementptr inbounds nuw %struct.reftable_buf, ptr %57, i32 0, i32 2
  %59 = load ptr, ptr %58, align 8, !tbaa !72
  %60 = load ptr, ptr %7, align 8, !tbaa !58
  %61 = getelementptr inbounds nuw %struct.reftable_ref_record, ptr %60, i32 0, i32 4
  %62 = getelementptr inbounds nuw %struct.anon, ptr %61, i32 0, i32 0
  %63 = getelementptr inbounds [32 x i8], ptr %62, i64 0, i64 0
  %64 = load ptr, ptr %6, align 8, !tbaa !30
  %65 = getelementptr inbounds nuw %struct.indexed_table_ref_iter, ptr %64, i32 0, i32 1
  %66 = getelementptr inbounds nuw %struct.reftable_buf, ptr %65, i32 0, i32 1
  %67 = load i64, ptr %66, align 8, !tbaa !73
  %68 = call i32 @memcmp(ptr noundef %59, ptr noundef %63, i64 noundef %67) #8
  %69 = icmp ne i32 %68, 0
  br i1 %69, label %71, label %70

70:                                               ; preds = %55, %40
  store i32 0, ptr %3, align 4
  store i32 1, ptr %9, align 4
  br label %72

71:                                               ; preds = %55
  store i32 0, ptr %9, align 4
  br label %72

72:                                               ; preds = %71, %70, %39, %38, %31, %21
  call void @llvm.lifetime.end.p0(i64 4, ptr %8) #7
  %73 = load i32, ptr %9, align 4
  switch i32 %73, label %75 [
    i32 0, label %74
    i32 2, label %13
  ]

74:                                               ; preds = %72
  br label %13

75:                                               ; preds = %72
  call void @llvm.lifetime.end.p0(i64 8, ptr %7) #7
  call void @llvm.lifetime.end.p0(i64 8, ptr %6) #7
  %76 = load i32, ptr %3, align 4
  ret i32 %76
}