; Function Attrs: nounwind uwtable
define internal range(i32 -2147483648, 2) i32 @indexed_table_ref_iter_next(ptr noundef %0, ptr noundef %1) #0 {
  %3 = getelementptr inbounds nuw i8, ptr %0, i64 48
  %4 = getelementptr inbounds nuw i8, ptr %0, i64 56
  %5 = getelementptr inbounds nuw i8, ptr %0, i64 24
  %6 = getelementptr inbounds nuw i8, ptr %1, i64 40
  %7 = getelementptr inbounds nuw i8, ptr %0, i64 144
  %8 = tail call i32 @block_iter_next(ptr noundef nonnull %7, ptr noundef %1) #10
  %9 = icmp slt i32 %8, 0
  br i1 %9, label %indexed_table_ref_iter_next_block.exit.thread, label %.lr.ph

.lr.ph:                                           ; preds = %2
  %10 = getelementptr inbounds nuw i8, ptr %0, i64 40
  %11 = getelementptr inbounds nuw i8, ptr %0, i64 44
  %12 = getelementptr inbounds nuw i8, ptr %0, i64 32
  %13 = getelementptr inbounds nuw i8, ptr %0, i64 224
  %14 = getelementptr inbounds nuw i8, ptr %1, i64 72
  %15 = getelementptr inbounds nuw i8, ptr %0, i64 16
  br label %16

16:                                               ; preds = %.lr.ph, %select.unfold
  %17 = phi i32 [ %8, %.lr.ph ], [ %38, %select.unfold ]
  %.not = icmp eq i32 %17, 0
  br i1 %.not, label %34, label %18

18:                                               ; preds = %16
  %19 = load i32, ptr %10, align 8, !tbaa !31
  %20 = load i32, ptr %11, align 4, !tbaa !30
  %21 = icmp eq i32 %19, %20
  br i1 %21, label %indexed_table_ref_iter_next_block.exit.thread41, label %22

indexed_table_ref_iter_next_block.exit.thread41:  ; preds = %18
  store i32 1, ptr %13, align 8, !tbaa !32
  br label %indexed_table_ref_iter_next_block.exit.thread

22:                                               ; preds = %18
  tail call void @reftable_block_done(ptr noundef nonnull %4) #10
  %23 = load ptr, ptr %12, align 8, !tbaa !29
  %24 = load i32, ptr %10, align 8, !tbaa !31
  %25 = add nsw i32 %24, 1
  store i32 %25, ptr %10, align 8, !tbaa !31
  %26 = sext i32 %24 to i64
  %27 = getelementptr inbounds i64, ptr %23, i64 %26
  %28 = load i64, ptr %27, align 8, !tbaa !33
  %29 = load ptr, ptr %0, align 8, !tbaa !14
  %30 = tail call i32 @reader_init_block_reader(ptr noundef %29, ptr noundef nonnull %3, i64 noundef %28, i8 noundef zeroext 114) #10
  %31 = icmp slt i32 %30, 0
  br i1 %31, label %indexed_table_ref_iter_next_block.exit.thread, label %32

32:                                               ; preds = %22
  %.not.i = icmp eq i32 %30, 0
  br i1 %.not.i, label %indexed_table_ref_iter_next_block.exit, label %indexed_table_ref_iter_next_block.exit.thread

indexed_table_ref_iter_next_block.exit:           ; preds = %32
  tail call void @block_iter_seek_start(ptr noundef nonnull %7, ptr noundef nonnull %3) #10
  %.pre = load i32, ptr %13, align 8, !tbaa !32
  %33 = icmp eq i32 %.pre, 0
  br i1 %33, label %select.unfold, label %indexed_table_ref_iter_next_block.exit.thread

34:                                               ; preds = %16
  %35 = load ptr, ptr %5, align 8, !tbaa !53
  %36 = load i64, ptr %15, align 8, !tbaa !54
  %bcmp = tail call i32 @bcmp(ptr %35, ptr nonnull %14, i64 %36)
  %.not22 = icmp eq i32 %bcmp, 0
  br i1 %.not22, label %indexed_table_ref_iter_next_block.exit.thread, label %37

37:                                               ; preds = %34
  %bcmp23 = tail call i32 @bcmp(ptr %35, ptr nonnull %6, i64 %36)
  %.not24 = icmp eq i32 %bcmp23, 0
  br i1 %.not24, label %indexed_table_ref_iter_next_block.exit.thread, label %select.unfold

select.unfold:                                    ; preds = %indexed_table_ref_iter_next_block.exit, %37
  %38 = tail call i32 @block_iter_next(ptr noundef nonnull %7, ptr noundef %1) #10
  %39 = icmp slt i32 %38, 0
  br i1 %39, label %indexed_table_ref_iter_next_block.exit.thread, label %16

indexed_table_ref_iter_next_block.exit.thread:    ; preds = %34, %indexed_table_ref_iter_next_block.exit, %select.unfold, %22, %32, %37, %indexed_table_ref_iter_next_block.exit.thread41, %2
  %.1.ph = phi i32 [ %8, %2 ], [ 1, %indexed_table_ref_iter_next_block.exit.thread41 ], [ 0, %37 ], [ -3, %32 ], [ %30, %22 ], [ %38, %select.unfold ], [ 1, %indexed_table_ref_iter_next_block.exit ], [ 0, %34 ]
  ret i32 %.1.ph
}